target datalayout = "e-m:e-p270:32:32-p271:32:32-p272:64:64-i64:64-i128:128-f80:128-n8:16:32:64-S128"
target triple = "x86_64-pc-linux-gnu"

%struct.AVCodecContext = type { ptr, i32, i32, ptr, i32, i32, ptr, ptr, ptr, i64, i32, i32, ptr, i32, %struct.AVRational, %struct.AVRational, %struct.AVRational, i32, i32, i32, i32, i32, %struct.AVRational, i32, i32, i32, i32, i32, i32, i32, i32, i32, i32, i32, ptr, ptr, i32, float, float, float, float, float, float, float, float, float, i32, i32, i32, i32, i32, i32, i32, i32, i32, i32, i32, i32, ptr, ptr, ptr, i32, i32, i32, i32, i32, i32, i32, i32, i32, i32, %struct.AVChannelLayout, i32, i32, i32, i32, i32, i32, i32, i32, ptr, i32, i32, i32, float, float, i32, i32, i32, i32, i32, ptr, i64, i64, float, float, i32, i32, ptr, ptr, i32, i32, i32, i32, i32, ptr, ptr, ptr, ptr, i32, i32, [8 x i64], i32, i32, i32, i32, i32, i32, i32, ptr, ptr, i32, i32, i32, i32, i32, i32, i32, i32, i32, i32, ptr, ptr, i32, i32, ptr, ptr, ptr, ptr, i32, i32, i64, i32, i32, i64, ptr, i64, ptr, i32, ptr, i32 }
%struct.AVRational = type { i32, i32 }
%struct.AVChannelLayout = type { i32, i32, %union.anon.0, ptr }
%union.anon.0 = type { i64 }
%struct.cook = type { ptr, ptr, ptr, ptr, ptr, ptr, %struct.AudioDSPContext, %struct.GetBitContext, i32, i32, %struct.AVLFG, i32, ptr, ptr, ptr, [13 x %struct.VLC], [7 x %struct.VLC], i32, [31 x float], ptr, [8 x i8], [2048 x float], [1024 x float], [1024 x float], [1060 x float], [5 x ptr], i32, [5 x %struct.COOKSubpacket], [8 x i8] }
%struct.AudioDSPContext = type { ptr, ptr, ptr }
%struct.GetBitContext = type { ptr, ptr, i32, i32, i32 }
%struct.AVLFG = type { [64 x i32], i32 }
%struct.VLC = type { i32, ptr, i32, i32 }
%struct.COOKSubpacket = type { i32, i32, i32, i32, i32, i32, i32, i32, i32, i32, %struct.VLC, i32, i32, i32, i32, i32, [1024 x float], [1024 x float], %struct.cook_gains, %struct.cook_gains, [9 x i32], [9 x i32], [9 x i32], [9 x i32] }
%struct.cook_gains = type { ptr, ptr }

@.str.35 = private unnamed_addr constant [22 x i8] c"Deallocating memory.\0A\00", align 1
@.str.36 = private unnamed_addr constant [21 x i8] c"Memory deallocated.\0A\00", align 1

; Function Attrs: cold nounwind optsize uwtable
define internal i32 @cook_decode_close(ptr noundef %0) #0 {
  %2 = alloca ptr, align 8
  %3 = alloca i32, align 4
  %4 = alloca ptr, align 8
  store ptr %0, ptr %2, align 8, !tbaa !4
  call void @llvm.lifetime.start.p0(i64 4, ptr %3) #11
  call void @llvm.lifetime.start.p0(i64 8, ptr %4) #11
  %5 = load ptr, ptr %2, align 8, !tbaa !4
  %6 = getelementptr inbounds nuw %struct.AVCodecContext, ptr %5, i32 0, i32 6
  %7 = load ptr, ptr %6, align 8, !tbaa !9
  store ptr %7, ptr %4, align 8, !tbaa !29
  %8 = load ptr, ptr %2, align 8, !tbaa !4
  call void (ptr, i32, ptr, ...) @av_log(ptr noundef %8, i32 noundef 48, ptr noundef @.str.35)
  %9 = load ptr, ptr %4, align 8, !tbaa !29
  %10 = getelementptr inbounds nuw %struct.cook, ptr %9, i32 0, i32 14
  call void @av_freep(ptr noundef %10)
  %11 = load ptr, ptr %4, align 8, !tbaa !29
  %12 = getelementptr inbounds nuw %struct.cook, ptr %11, i32 0, i32 19
  call void @av_freep(ptr noundef %12)
  %13 = load ptr, ptr %4, align 8, !tbaa !29
  %14 = getelementptr inbounds nuw %struct.cook, ptr %13, i32 0, i32 12
  call void @av_tx_uninit(ptr noundef %14)
  store i32 0, ptr %3, align 4, !tbaa !31
  br label %15

15:                                               ; preds = %24, %1
  %16 = load i32, ptr %3, align 4, !tbaa !31
  %17 = icmp slt i32 %16, 13
  br i1 %17, label %18, label %27

18:                                               ; preds = %15
  %19 = load ptr, ptr %4, align 8, !tbaa !29
  %20 = getelementptr inbounds nuw %struct.cook, ptr %19, i32 0, i32 15
  %21 = load i32, ptr %3, align 4, !tbaa !31
  %22 = sext i32 %21 to i64
  %23 = getelementptr inbounds [13 x %struct.VLC], ptr %20, i64 0, i64 %22
  call void @ff_vlc_free(ptr noundef %23)
  br label %24

24:                                               ; preds = %18
  %25 = load i32, ptr %3, align 4, !tbaa !31
  %26 = add nsw i32 %25, 1
  store i32 %26, ptr %3, align 4, !tbaa !31
  br label %15, !llvm.loop !98

27:                                               ; preds = %15
  store i32 0, ptr %3, align 4, !tbaa !31
  br label %28

28:                                               ; preds = %37, %27
  %29 = load i32, ptr %3, align 4, !tbaa !31
  %30 = icmp slt i32 %29, 7
  br i1 %30, label %31, label %40

31:                                               ; preds = %28
  %32 = load ptr, ptr %4, align 8, !tbaa !29
  %33 = getelementptr inbounds nuw %struct.cook, ptr %32, i32 0, i32 16
  %34 = load i32, ptr %3, align 4, !tbaa !31
  %35 = sext i32 %34 to i64
  %36 = getelementptr inbounds [7 x %struct.VLC], ptr %33, i64 0, i64 %35
  call void @ff_vlc_free(ptr noundef %36)
  br label %37

37:                                               ; preds = %31
  %38 = load i32, ptr %3, align 4, !tbaa !31
  %39 = add nsw i32 %38, 1
  store i32 %39, ptr %3, align 4, !tbaa !31
  br label %28, !llvm.loop !99

40:                                               ; preds = %28
  store i32 0, ptr %3, align 4, !tbaa !31
  br label %41

41:                                               ; preds = %54, %40
  %42 = load i32, ptr %3, align 4, !tbaa !31
  %43 = load ptr, ptr %4, align 8, !tbaa !29
  %44 = getelementptr inbounds nuw %struct.cook, ptr %43, i32 0, i32 26
  %45 = load i32, ptr %44, align 8, !tbaa !65
  %46 = icmp slt i32 %42, %45
  br i1 %46, label %47, label %57

47:                                               ; preds = %41
  %48 = load ptr, ptr %4, align 8, !tbaa !29
  %49 = getelementptr inbounds nuw %struct.cook, ptr %48, i32 0, i32 27
  %50 = load i32, ptr %3, align 4, !tbaa !31
  %51 = sext i32 %50 to i64
  %52 = getelementptr inbounds [5 x %struct.COOKSubpacket], ptr %49, i64 0, i64 %51
  %53 = getelementptr inbounds nuw %struct.COOKSubpacket, ptr %52, i32 0, i32 10
  call void @ff_vlc_free(ptr noundef %53)
  br label %54

54:                                               ; preds = %47
  %55 = load i32, ptr %3, align 4, !tbaa !31
  %56 = add nsw i32 %55, 1
  store i32 %56, ptr %3, align 4, !tbaa !31
  br label %41, !llvm.loop !100

57:                                               ; preds = %41
  %58 = load ptr, ptr %2, align 8, !tbaa !4
  call void (ptr, i32, ptr, ...) @av_log(ptr noundef %58, i32 noundef 48, ptr noundef @.str.36)
  call void @llvm.lifetime.end.p0(i64 8, ptr %4) #11
  call void @llvm.lifetime.end.p0(i64 4, ptr %3) #11
  ret i32 0
}