; Function Attrs: cold nounwind optsize uwtable
define internal noundef i32 @cook_decode_close(ptr noundef %0) #0 {
  %2 = getelementptr inbounds nuw i8, ptr %0, i64 32
  %3 = load ptr, ptr %2, align 8, !tbaa !4
  tail call void (ptr, i32, ptr, ...) @av_log(ptr noundef %0, i32 noundef 48, ptr noundef nonnull @.str.35) #13
  %4 = getelementptr inbounds nuw i8, ptr %3, i64 392
  tail call void @av_freep(ptr noundef nonnull %4) #13
  %5 = getelementptr inbounds nuw i8, ptr %3, i64 1008
  tail call void @av_freep(ptr noundef nonnull %5) #13
  %6 = getelementptr inbounds nuw i8, ptr %3, i64 376
  tail call void @av_tx_uninit(ptr noundef nonnull %6) #13
  %7 = getelementptr inbounds nuw i8, ptr %3, i64 400
  br label %9

.preheader18:                                     ; preds = %9
  %8 = getelementptr inbounds nuw i8, ptr %3, i64 712
  br label %15

9:                                                ; preds = %1, %9
  %indvars.iv = phi i64 [ 0, %1 ], [ %indvars.iv.next, %9 ]
  %10 = getelementptr inbounds nuw [13 x %struct.VLC], ptr %7, i64 0, i64 %indvars.iv
  tail call void @ff_vlc_free(ptr noundef nonnull %10) #13
  %indvars.iv.next = add nuw nsw i64 %indvars.iv, 1
  %exitcond.not = icmp eq i64 %indvars.iv.next, 13
  br i1 %exitcond.not, label %.preheader18, label %9, !llvm.loop !104

.preheader:                                       ; preds = %15
  %11 = getelementptr inbounds nuw i8, ptr %3, i64 21688
  %12 = load i32, ptr %11, align 8, !tbaa !62
  %13 = icmp sgt i32 %12, 0
  br i1 %13, label %.lr.ph, label %._crit_edge

.lr.ph:                                           ; preds = %.preheader
  %14 = getelementptr i8, ptr %3, i64 21736
  br label %17

15:                                               ; preds = %.preheader18, %15
  %indvars.iv23 = phi i64 [ 0, %.preheader18 ], [ %indvars.iv.next24, %15 ]
  %16 = getelementptr inbounds nuw [7 x %struct.VLC], ptr %8, i64 0, i64 %indvars.iv23
  tail call void @ff_vlc_free(ptr noundef nonnull %16) #13
  %indvars.iv.next24 = add nuw nsw i64 %indvars.iv23, 1
  %exitcond26.not = icmp eq i64 %indvars.iv.next24, 7
  br i1 %exitcond26.not, label %.preheader, label %15, !llvm.loop !105

17:                                               ; preds = %.lr.ph, %17
  %indvars.iv27 = phi i64 [ 0, %.lr.ph ], [ %indvars.iv.next28, %17 ]
  %.idx = mul nuw nsw i64 %indvars.iv27, 8456
  %18 = getelementptr i8, ptr %14, i64 %.idx
  tail call void @ff_vlc_free(ptr noundef %18) #13
  %indvars.iv.next28 = add nuw nsw i64 %indvars.iv27, 1
  %19 = load i32, ptr %11, align 8, !tbaa !62
  %20 = sext i32 %19 to i64
  %21 = icmp slt i64 %indvars.iv.next28, %20
  br i1 %21, label %17, label %._crit_edge, !llvm.loop !106

._crit_edge:                                      ; preds = %17, %.preheader
  tail call void (ptr, i32, ptr, ...) @av_log(ptr noundef nonnull %0, i32 noundef 48, ptr noundef nonnull @.str.36) #13
  ret i32 0
}